target datalayout = "e-m:e-p270:32:32-p271:32:32-p272:64:64-i64:64-i128:128-f80:128-n8:16:32:64-S128"
target triple = "x86_64-pc-linux-gnu"

%struct.tm = type { i32, i32, i32, i32, i32, i32, i32, i32, i32, i64, ptr }

; Function Attrs: nounwind uwtable
define void @PGTYPESdate_today(ptr noundef %0) #0 {
  %2 = alloca ptr, align 8
  %3 = alloca %struct.tm, align 8
  store ptr %0, ptr %2, align 8
  call void @llvm.lifetime.start.p0(i64 56, ptr %3) #7
  call void @GetCurrentDateTime(ptr noundef %3)
  %4 = call ptr @__errno_location() #8
  %5 = load i32, ptr %4, align 4
  %6 = icmp eq i32 %5, 0
  br i1 %6, label %7, label %19

7:                                                ; preds = %1
  %8 = getelementptr inbounds nuw %struct.tm, ptr %3, i32 0, i32 5
  %9 = load i32, ptr %8, align 4
  %10 = getelementptr inbounds nuw %struct.tm, ptr %3, i32 0, i32 4
  %11 = load i32, ptr %10, align 8
  %12 = getelementptr inbounds nuw %struct.tm, ptr %3, i32 0, i32 3
  %13 = load i32, ptr %12, align 4
  %14 = call i32 @date2j(i32 noundef %9, i32 noundef %11, i32 noundef %13)
  %15 = call i32 @date2j(i32 noundef 2000, i32 noundef 1, i32 noundef 1)
  %16 = sub i32 %14, %15
  %17 = sext i32 %16 to i64
  %18 = load ptr, ptr %2, align 8
  store i64 %17, ptr %18, align 8
  br label %19

19:                                               ; preds = %7, %1
  call void @llvm.lifetime.end.p0(i64 56, ptr %3) #7
  ret void
}