; Function Attrs: nounwind uwtable
define void @PGTYPESdate_today(ptr noundef writeonly captures(none) %0) local_unnamed_addr #0 {
  %2 = alloca %struct.tm, align 8
  call void @llvm.lifetime.start.p0(i64 56, ptr nonnull %2) #12
  call void @GetCurrentDateTime(ptr noundef nonnull %2) #12
  %3 = tail call ptr @__errno_location() #13
  %4 = load i32, ptr %3, align 4
  %5 = icmp eq i32 %4, 0
  br i1 %5, label %6, label %17

6:                                                ; preds = %1
  %7 = getelementptr inbounds nuw i8, ptr %2, i64 20
  %8 = load i32, ptr %7, align 4
  %9 = getelementptr inbounds nuw i8, ptr %2, i64 16
  %10 = load i32, ptr %9, align 8
  %11 = getelementptr inbounds nuw i8, ptr %2, i64 12
  %12 = load i32, ptr %11, align 4
  %13 = call i32 @date2j(i32 noundef %8, i32 noundef %10, i32 noundef %12) #12
  %14 = call i32 @date2j(i32 noundef 2000, i32 noundef 1, i32 noundef 1) #12
  %15 = sub i32 %13, %14
  %16 = sext i32 %15 to i64
  store i64 %16, ptr %0, align 8
  br label %17

17:                                               ; preds = %6, %1
  call void @llvm.lifetime.end.p0(i64 56, ptr nonnull %2) #12
  ret void
}